Certificate:
    Data:
        Version: 3 (0x2)
        Serial Number: 1 (0x1)
    Signature Algorithm: sha512WithRSAEncryption
        Issuer: C=US, ST=New York, L=New York City, O=quantum, OU=development, CN=ca.quantum.dev
        Validity
            Not Before: Aug 13 20:00:28 2016 GMT
            Not After : Aug 11 20:00:28 2026 GMT
        Subject: O=quantum, CN=etcd.quantum.dev
        Subject Public Key Info:
            Public Key Algorithm: rsaEncryption
                Public-Key: (4096 bit)
                Modulus:
                    00:f8:dc:a2:c1:1d:91:3b:a8:4b:f4:78:1d:65:c5:
                    70:4e:2a:89:b9:11:ed:df:87:2d:f2:44:3a:66:a8:
                    9f:59:bb:c0:ef:8f:3a:65:0a:56:e6:e9:b8:e1:9c:
                    35:e6:58:21:8c:c0:e2:f6:fc:20:d2:45:63:fe:ce:
                    d7:aa:1f:df:d5:47:8c:a5:aa:90:70:13:af:61:73:
                    d7:4d:06:0d:e7:32:a9:a6:f5:c3:8f:ef:ee:94:c3:
                    e8:cd:40:d3:54:b3:4b:9f:94:59:be:67:3f:1e:d1:
                    0c:83:b5:59:a4:69:7f:4d:22:82:54:b9:f5:9c:58:
                    6f:d2:f6:b1:25:fd:93:92:12:87:b4:06:83:5a:7a:
                    b9:82:46:f4:7b:65:54:66:74:86:df:72:88:28:46:
                    3b:e5:bc:95:aa:80:7e:14:4a:ba:b0:c9:27:3e:e8:
                    27:f3:a6:5a:86:75:cb:73:34:e3:22:fe:54:6a:cb:
                    90:77:73:dd:86:24:f6:3f:ee:9c:51:97:2f:81:37:
                    a8:fb:d5:24:9c:bf:74:b8:32:99:38:20:d2:4b:20:
                    13:2f:1c:2b:b1:fb:e7:47:02:cc:70:38:2b:aa:b3:
                    65:6a:f5:e8:fd:52:f1:83:09:2d:11:7c:d4:32:27:
                    2e:33:24:33:3a:6f:61:ad:42:b6:0c:9f:8b:fd:7d:
                    30:7a:4e:1f:e1:f1:97:63:f9:8b:82:4c:53:29:25:
                    09:6e:b9:b6:c2:d7:a1:33:7e:7b:7b:c2:ce:39:e4:
                    ef:36:2e:f8:5d:f2:5a:89:94:e3:4d:c1:22:31:36:
                    2b:23:a7:df:54:77:6c:7f:c0:37:a3:c5:e4:8c:b7:
                    0f:81:6c:c6:3f:7f:14:bc:21:f9:16:d1:ad:0b:6b:
                    ad:f8:f5:f2:4e:c5:ba:d5:08:da:ab:58:72:dd:3d:
                    3e:90:e5:57:01:93:e7:79:ea:84:61:cf:7e:3a:e6:
                    bf:3e:0f:09:9e:26:10:91:f9:24:8a:9a:bb:63:88:
                    65:c1:a3:7e:94:dc:e1:91:13:f9:d7:15:61:42:21:
                    9b:ff:47:bb:35:a6:dd:d5:be:90:fa:2f:75:b5:2b:
                    b8:6d:98:af:45:64:f1:45:92:be:2c:e4:19:5e:a8:
                    d4:3c:a0:ae:29:33:8d:54:47:cd:d4:d9:bf:90:09:
                    8c:32:bd:04:55:4a:4c:6a:f7:23:44:c0:5a:d7:78:
                    8a:2e:5a:d2:22:92:2b:ab:8a:93:87:2f:db:8c:a3:
                    ee:c9:47:2f:54:25:77:ae:3f:1f:86:89:eb:38:55:
                    50:20:ea:c5:7f:de:1d:d2:11:b2:aa:e8:71:41:05:
                    ec:af:24:32:3b:29:93:f5:39:11:86:c7:fa:52:c4:
                    39:07:bf
                Exponent: 65537 (0x10001)
        X509v3 extensions:
            X509v3 Basic Constraints: 
                CA:FALSE
            X509v3 Extended Key Usage: 
                TLS Web Client Authentication, TLS Web Server Authentication
            X509v3 Key Usage: 
                Digital Signature, Key Encipherment
            X509v3 Subject Alternative Name: 
                IP Address:127.0.0.1, IP Address:172.18.0.4
    Signature Algorithm: sha512WithRSAEncryption
         5d:26:ab:e0:9e:24:3e:a2:7d:7d:9c:f8:e2:ee:09:3f:f9:ed:
         f9:3b:8d:54:a0:a6:3a:2c:45:41:b4:62:7b:bd:63:2c:83:bf:
         3a:eb:04:b7:20:b6:70:0d:ef:5d:44:3a:46:f5:31:73:84:0d:
         b5:ed:d1:e4:00:a2:dc:8f:7a:26:c2:3d:69:ad:22:6e:64:8f:
         ae:c4:ad:6b:a5:58:57:df:66:0a:46:3d:0e:51:14:0b:db:69:
         e7:69:b7:7a:d8:b2:d1:c1:76:6c:0f:66:7f:63:ae:04:12:7a:
         75:f8:9d:c9:ef:b4:a4:8f:08:97:47:ae:39:ae:80:cc:93:c6:
         54:21:4f:36:cd:4e:f8:55:ea:1f:26:44:05:78:96:66:2a:ac:
         8e:4e:63:2f:74:c3:14:88:82:86:da:84:63:c3:8d:af:2f:67:
         32:b8:68:21:9b:9c:e4:bf:25:f5:2c:9e:a2:6f:34:e4:27:ae:
         63:af:65:06:19:5a:05:98:3b:9c:98:c9:66:78:3d:ff:1b:67:
         50:1c:52:65:90:12:f7:2b:8d:76:45:51:6d:1e:66:08:ef:f2:
         d0:31:14:4e:2e:1a:07:fb:06:2d:8c:51:b1:8b:fa:8d:cf:b2:
         9a:4b:dc:7f:0b:f1:7b:6e:a5:69:fa:a9:40:77:ac:49:7d:0c:
         72:95:44:98:87:62:3b:63:d8:83:cc:21:fb:d2:e6:c9:e5:35:
         13:d8:7f:a8:55:30:b8:0a:62:32:db:16:b1:91:cf:ac:12:d4:
         8b:6b:bf:72:57:24:d5:98:cb:7f:83:40:ac:75:a9:d7:8b:34:
         09:d4:d8:ae:d0:d4:c7:c9:90:5b:47:05:3b:4f:b2:fa:2f:13:
         a6:6d:cc:35:01:2c:08:90:df:1b:ac:05:79:92:b9:78:51:60:
         f0:ae:4d:02:91:35:62:9f:ef:26:de:fb:c9:83:15:a5:c9:e0:
         07:09:1e:79:0a:c4:8a:50:33:3d:05:eb:a8:d9:bf:f4:27:c2:
         cc:97:60:3c:5e:c5:aa:80:cd:a1:01:13:dc:70:bf:30:e7:bf:
         cd:99:68:48:da:af:f6:09:14:33:70:dc:38:84:89:fb:eb:77:
         92:f9:05:40:e9:09:25:af:c7:43:32:b8:a3:cc:40:ae:b1:c3:
         9d:37:b5:5a:43:b5:27:33:47:26:fa:b1:a8:92:58:30:f0:fe:
         a3:05:2c:29:98:7d:9b:f3:69:de:e0:43:9c:3c:c4:63:c2:3c:
         e3:62:bd:ce:d9:ab:d5:59:6e:da:5e:fe:7c:7a:e5:2e:84:18:
         14:e2:5d:86:7e:29:60:4f:89:7f:f6:4d:b6:fc:3f:8c:96:75:
         4a:80:fd:f3:0f:55:5d:b0
-----BEGIN CERTIFICATE-----
MIIFcTCCA1mgAwIBAgIBATANBgkqhkiG9w0BAQ0FADB5MQswCQYDVQQGEwJVUzER
MA8GA1UECAwITmV3IFlvcmsxFjAUBgNVBAcMDU5ldyBZb3JrIENpdHkxEDAOBgNV
BAoMB3F1YW50dW0xFDASBgNVBAsMC2RldmVsb3BtZW50MRcwFQYDVQQDDA5jYS5x
dWFudHVtLmRldjAeFw0xNjA4MTMyMDAwMjhaFw0yNjA4MTEyMDAwMjhaMC0xEDAO
BgNVBAoMB3F1YW50dW0xGTAXBgNVBAMMEGV0Y2QucXVhbnR1bS5kZXYwggIiMA0G
CSqGSIb3DQEBAQUAA4ICDwAwggIKAoICAQD43KLBHZE7qEv0eB1lxXBOKom5Ee3f
hy3yRDpmqJ9Zu8DvjzplClbm6bjhnDXmWCGMwOL2/CDSRWP+zteqH9/VR4ylqpBw
E69hc9dNBg3nMqmm9cOP7+6Uw+jNQNNUs0uflFm+Zz8e0QyDtVmkaX9NIoJUufWc
WG/S9rEl/ZOSEoe0BoNaermCRvR7ZVRmdIbfcogoRjvlvJWqgH4USrqwySc+6Cfz
plqGdctzNOMi/lRqy5B3c92GJPY/7pxRly+BN6j71SScv3S4Mpk4INJLIBMvHCux
++dHAsxwOCuqs2Vq9ej9UvGDCS0RfNQyJy4zJDM6b2GtQrYMn4v9fTB6Th/h8Zdj
+YuCTFMpJQluubbC16Ezfnt7ws455O82Lvhd8lqJlONNwSIxNisjp99Ud2x/wDej
xeSMtw+BbMY/fxS8IfkW0a0La6349fJOxbrVCNqrWHLdPT6Q5VcBk+d56oRhz346
5r8+DwmeJhCR+SSKmrtjiGXBo36U3OGRE/nXFWFCIZv/R7s1pt3VvpD6L3W1K7ht
mK9FZPFFkr4s5BleqNQ8oK4pM41UR83U2b+QCYwyvQRVSkxq9yNEwFrXeIouWtIi
kiuripOHL9uMo+7JRy9UJXeuPx+Gies4VVAg6sV/3h3SEbKq6HFBBeyvJDI7KZP1
ORGGx/pSxDkHvwIDAQABo1AwTjAJBgNVHRMEAjAAMB0GA1UdJQQWMBQGCCsGAQUF
BwMCBggrBgEFBQcDATALBgNVHQ8EBAMCBaAwFQYDVR0RBA4wDIcEfwAAAYcErBIA
BDANBgkqhkiG9w0BAQ0FAAOCAgEAXSar4J4kPqJ9fZz44u4JP/nt+TuNVKCmOixF
QbRie71jLIO/OusEtyC2cA3vXUQ6RvUxc4QNte3R5ACi3I96JsI9aa0ibmSPrsSt
a6VYV99mCkY9DlEUC9tp52m3etiy0cF2bA9mf2OuBBJ6dfidye+0pI8Il0euOa6A
zJPGVCFPNs1O+FXqHyZEBXiWZiqsjk5jL3TDFIiChtqEY8ONry9nMrhoIZuc5L8l
9Syeom805CeuY69lBhlaBZg7nJjJZng9/xtnUBxSZZAS9yuNdkVRbR5mCO/y0DEU
Ti4aB/sGLYxRsYv6jc+ymkvcfwvxe26lafqpQHesSX0McpVEmIdiO2PYg8wh+9Lm
yeU1E9h/qFUwuApiMtsWsZHPrBLUi2u/clck1ZjLf4NArHWp14s0CdTYrtDUx8mQ
W0cFO0+y+i8Tpm3MNQEsCJDfG6wFeZK5eFFg8K5NApE1Yp/vJt77yYMVpcngBwke
eQrEilAzPQXrqNm/9CfCzJdgPF7FqoDNoQET3HC/MOe/zZloSNqv9gkUM3DcOISJ
++t3kvkFQOkJJa/HQzK4o8xArrHDnTe1WkO1JzNHJvqxqJJYMPD+owUsKZh9m/Np
3uBDnDzEY8I842K9ztmr1Vlu2l7+fHrlLoQYFOJdhn4pYE+Jf/ZNtvw/jJZ1SoD9
8w9VXbA=
-----END CERTIFICATE-----
