Certificate:
    Data:
        Version: 3 (0x2)
        Serial Number: 3 (0x3)
    Signature Algorithm: sha512WithRSAEncryption
        Issuer: C=US, ST=New York, L=New York City, O=quantum, OU=development, CN=ca.quantum.dev
        Validity
            Not Before: Aug 13 20:00:35 2016 GMT
            Not After : Aug 11 20:00:35 2026 GMT
        Subject: O=quantum, CN=quantum1.quantum.dev
        Subject Public Key Info:
            Public Key Algorithm: rsaEncryption
                Public-Key: (4096 bit)
                Modulus:
                    00:c9:3d:38:19:b1:2a:31:ea:3b:a9:27:ee:d6:3a:
                    43:96:e4:cf:2d:7f:07:f5:1b:16:66:fc:d2:4a:f0:
                    01:eb:b5:ac:7c:c2:b0:d5:f8:42:da:da:9e:6d:73:
                    56:7e:34:6c:2a:ec:be:63:a0:10:e6:7a:57:01:69:
                    99:94:b0:59:56:e4:d1:4a:59:7d:a3:ea:0a:88:a8:
                    e7:17:e1:6f:ce:d0:84:cf:9c:89:09:bd:3f:19:c6:
                    a2:23:e9:d3:d2:79:16:99:78:22:32:b9:13:0a:07:
                    02:53:e3:f0:74:97:e8:96:f6:b8:08:f2:6d:e3:f8:
                    bf:c3:dd:ee:04:cc:f6:40:32:40:33:3c:3f:aa:8e:
                    12:b2:d1:29:c5:d4:0d:6e:d9:c1:d2:f2:fb:ab:ef:
                    5e:5f:2c:e5:81:b2:12:ed:63:26:1a:59:ab:dc:69:
                    bc:37:d9:02:9b:0e:59:9a:fb:89:25:f6:90:6f:a4:
                    ac:ad:e9:ec:9b:da:53:a2:d2:af:04:ff:41:64:73:
                    2c:a0:c1:c6:a5:14:ef:80:e8:6a:b7:91:b1:96:18:
                    f7:fa:f1:9b:8c:99:52:d8:44:cc:2b:9a:00:12:9e:
                    fa:17:c3:db:01:df:ec:4d:f9:7a:6f:8b:e8:e4:ac:
                    bc:ef:29:3f:89:13:4e:13:b3:61:99:e1:dd:36:62:
                    7d:97:89:33:df:30:57:09:5d:7d:97:9e:70:1c:ac:
                    c9:da:7e:20:68:3a:cc:c6:3d:66:e4:a3:c6:1e:cd:
                    06:90:8e:9e:99:b9:ef:6f:02:2e:a1:c2:50:9a:74:
                    e0:4e:8d:22:23:48:64:26:9d:e6:ed:09:1f:8a:13:
                    84:7f:52:26:fe:56:9e:8f:6c:8c:75:54:e4:9a:ec:
                    57:df:e2:f8:e0:cb:1c:8b:bb:6a:59:1d:03:3c:3a:
                    49:07:a1:6f:76:17:90:1f:46:ad:45:fa:5a:f0:93:
                    03:d9:f4:b0:a4:d0:c0:e8:7f:af:40:ae:de:58:54:
                    e0:44:31:3c:0f:ea:28:59:a0:05:48:1f:52:58:fb:
                    4c:8e:73:59:85:b7:fe:23:ce:b9:f9:80:b8:01:a5:
                    f0:0b:cf:22:b0:b9:07:b4:47:a8:59:39:2b:5e:25:
                    9c:af:c8:08:62:a6:c2:20:77:ed:c3:b8:82:41:e2:
                    89:6e:d0:2c:59:08:58:a0:64:4a:63:99:e5:c1:b6:
                    0a:04:f8:56:02:4b:6c:5d:9b:8f:16:2a:89:5d:75:
                    0d:72:19:54:ec:a4:ac:7d:e2:dc:79:da:71:07:58:
                    6c:e9:6b:8d:ee:5a:8b:a1:a6:62:b3:e8:bc:e3:ee:
                    73:11:e8:92:27:ed:26:c0:11:7a:0d:65:de:49:5d:
                    69:4a:4f
                Exponent: 65537 (0x10001)
        X509v3 extensions:
            X509v3 Basic Constraints: 
                CA:FALSE
            X509v3 Extended Key Usage: 
                TLS Web Client Authentication
            X509v3 Key Usage: 
                Digital Signature, Key Encipherment
    Signature Algorithm: sha512WithRSAEncryption
         a9:38:ec:a0:1a:a1:0e:8b:09:af:ae:f3:e4:dd:d5:ab:87:4a:
         9c:62:ee:7e:7f:84:04:cc:ba:d3:fd:4b:20:8f:3a:0b:c2:23:
         fb:43:ca:31:91:98:c0:9b:21:2a:56:bb:6f:a6:da:d8:9e:f5:
         26:25:63:94:0e:e5:66:76:3c:f4:3e:2e:ef:fd:9c:2b:21:c2:
         70:c8:8c:a5:fc:d6:6b:c6:5f:cc:04:d1:dd:ef:03:74:da:2e:
         1d:d7:7b:39:5f:68:71:46:f7:7e:53:c1:38:0d:f2:a8:55:d8:
         1e:f5:73:e5:ce:84:89:cb:32:58:75:7d:98:4d:90:d5:77:65:
         e4:8c:1e:9a:63:df:41:f9:82:ca:8f:05:d8:2f:20:f5:b9:e1:
         b3:01:22:bf:e1:5a:d1:ca:91:32:0c:11:30:4f:be:a2:1a:32:
         5e:8a:34:de:96:db:dd:bd:b0:58:73:6a:22:2d:b2:51:94:0c:
         dd:d1:b1:44:40:a3:74:46:dd:53:28:6e:00:27:33:80:e1:c2:
         8a:7d:fe:d5:e0:5f:9a:a7:01:ba:63:52:7f:30:e3:1e:6d:ed:
         01:3f:bc:17:f9:c5:d1:d9:d3:b0:b5:de:28:64:6e:6c:79:32:
         7b:ab:33:a6:47:11:f1:92:85:00:87:f3:f8:2d:6d:a1:f5:58:
         3e:82:d9:01:33:36:bd:9b:f3:fe:f3:6e:7d:11:e8:6a:28:aa:
         f2:c5:18:7e:4d:4c:af:5c:2f:70:6c:a8:de:52:4a:6f:15:79:
         79:21:ec:70:a1:7b:92:ab:08:5d:d1:fe:5f:cb:7d:02:8a:1d:
         8d:6a:28:98:ae:41:e3:cc:a2:e3:bd:54:fa:6c:56:5c:ad:1c:
         b1:22:6e:f9:8c:c8:bb:18:61:48:bf:c6:6e:cd:78:a3:27:22:
         b3:23:d2:87:9a:27:fb:27:f1:ca:20:d2:0c:25:cd:d8:fc:0c:
         ec:7d:e0:26:50:f2:37:1e:2e:6a:58:7d:cd:87:4e:32:bb:c0:
         6f:94:5e:55:79:90:ef:e0:75:76:b3:b9:ad:32:a5:c0:a6:75:
         60:d2:63:cf:cd:06:db:81:98:84:27:b9:fb:94:d9:a5:23:e6:
         95:23:e0:6e:bb:c0:74:96:b2:12:44:c9:1c:eb:0a:a5:08:92:
         17:62:85:33:12:59:6a:5a:92:69:30:ed:05:d9:83:e1:7f:ba:
         8e:72:ad:6d:9c:ea:de:c7:85:8c:18:9f:b5:7e:d8:70:38:94:
         5a:b1:c4:1a:a4:23:a3:4f:9e:96:c8:2a:17:df:2f:c7:97:66:
         91:c8:b4:ee:8d:6f:ba:1c:55:0a:e9:4a:de:97:58:d3:64:b6:
         c2:12:dc:d1:12:dc:b1:87
-----BEGIN CERTIFICATE-----
MIIFVDCCAzygAwIBAgIBAzANBgkqhkiG9w0BAQ0FADB5MQswCQYDVQQGEwJVUzER
MA8GA1UECAwITmV3IFlvcmsxFjAUBgNVBAcMDU5ldyBZb3JrIENpdHkxEDAOBgNV
BAoMB3F1YW50dW0xFDASBgNVBAsMC2RldmVsb3BtZW50MRcwFQYDVQQDDA5jYS5x
dWFudHVtLmRldjAeFw0xNjA4MTMyMDAwMzVaFw0yNjA4MTEyMDAwMzVaMDExEDAO
BgNVBAoMB3F1YW50dW0xHTAbBgNVBAMMFHF1YW50dW0xLnF1YW50dW0uZGV2MIIC
IjANBgkqhkiG9w0BAQEFAAOCAg8AMIICCgKCAgEAyT04GbEqMeo7qSfu1jpDluTP
LX8H9RsWZvzSSvAB67WsfMKw1fhC2tqebXNWfjRsKuy+Y6AQ5npXAWmZlLBZVuTR
Sll9o+oKiKjnF+FvztCEz5yJCb0/GcaiI+nT0nkWmXgiMrkTCgcCU+PwdJfolva4
CPJt4/i/w93uBMz2QDJAMzw/qo4SstEpxdQNbtnB0vL7q+9eXyzlgbIS7WMmGlmr
3Gm8N9kCmw5ZmvuJJfaQb6Ssrensm9pTotKvBP9BZHMsoMHGpRTvgOhqt5Gxlhj3
+vGbjJlS2ETMK5oAEp76F8PbAd/sTfl6b4vo5Ky87yk/iRNOE7NhmeHdNmJ9l4kz
3zBXCV19l55wHKzJ2n4gaDrMxj1m5KPGHs0GkI6embnvbwIuocJQmnTgTo0iI0hk
Jp3m7QkfihOEf1Im/laej2yMdVTkmuxX3+L44Msci7tqWR0DPDpJB6FvdheQH0at
Rfpa8JMD2fSwpNDA6H+vQK7eWFTgRDE8D+ooWaAFSB9SWPtMjnNZhbf+I865+YC4
AaXwC88isLkHtEeoWTkrXiWcr8gIYqbCIHftw7iCQeKJbtAsWQhYoGRKY5nlwbYK
BPhWAktsXZuPFiqJXXUNchlU7KSsfeLcedpxB1hs6WuN7lqLoaZis+i84+5zEeiS
J+0mwBF6DWXeSV1pSk8CAwEAAaMvMC0wCQYDVR0TBAIwADATBgNVHSUEDDAKBggr
BgEFBQcDAjALBgNVHQ8EBAMCBaAwDQYJKoZIhvcNAQENBQADggIBAKk47KAaoQ6L
Ca+u8+Td1auHSpxi7n5/hATMutP9SyCPOgvCI/tDyjGRmMCbISpWu2+m2tie9SYl
Y5QO5WZ2PPQ+Lu/9nCshwnDIjKX81mvGX8wE0d3vA3TaLh3XezlfaHFG935TwTgN
8qhV2B71c+XOhInLMlh1fZhNkNV3ZeSMHppj30H5gsqPBdgvIPW54bMBIr/hWtHK
kTIMETBPvqIaMl6KNN6W2929sFhzaiItslGUDN3RsURAo3RG3VMobgAnM4Dhwop9
/tXgX5qnAbpjUn8w4x5t7QE/vBf5xdHZ07C13ihkbmx5MnurM6ZHEfGShQCH8/gt
baH1WD6C2QEzNr2b8/7zbn0R6GooqvLFGH5NTK9cL3BsqN5SSm8VeXkh7HChe5Kr
CF3R/l/LfQKKHY1qKJiuQePMouO9VPpsVlytHLEibvmMyLsYYUi/xm7NeKMnIrMj
0oeaJ/sn8cog0gwlzdj8DOx94CZQ8jceLmpYfc2HTjK7wG+UXlV5kO/gdXazua0y
pcCmdWDSY8/NBtuBmIQnufuU2aUj5pUj4G67wHSWshJEyRzrCqUIkhdihTMSWWpa
kmkw7QXZg+F/uo5yrW2c6t7HhYwYn7V+2HA4lFqxxBqkI6NPnpbIKhffL8eXZpHI
tO6Nb7ocVQrpSt6XWNNktsIS3NES3LGH
-----END CERTIFICATE-----
