Certificate:
    Data:
        Version: 3 (0x2)
        Serial Number: 4 (0x4)
    Signature Algorithm: sha512WithRSAEncryption
        Issuer: C=US, ST=New York, L=New York City, O=quantum, OU=development, CN=ca.quantum.dev
        Validity
            Not Before: Aug 13 20:00:38 2016 GMT
            Not After : Aug 11 20:00:38 2026 GMT
        Subject: O=quantum, CN=quantum2.quantum.dev
        Subject Public Key Info:
            Public Key Algorithm: rsaEncryption
                Public-Key: (4096 bit)
                Modulus:
                    00:ae:b9:e3:b6:37:35:19:12:1f:6f:d7:4f:2a:39:
                    cb:09:c4:4a:ca:57:a8:6b:21:de:e8:f9:97:41:cc:
                    33:cb:69:39:b6:3c:a5:f7:da:2e:de:fc:e9:d1:10:
                    9f:cb:75:6b:aa:42:2e:49:67:ce:18:92:ec:0c:f1:
                    52:5e:1e:e3:f1:65:f7:6f:f2:b1:17:b0:9d:b3:7e:
                    86:dc:1b:14:7a:42:34:2a:d6:02:3a:e9:8c:6c:8d:
                    76:0c:e0:23:56:00:ef:0a:ab:1a:82:f6:a1:48:5b:
                    1f:ff:c0:71:f4:eb:4d:81:7d:10:55:eb:90:83:b0:
                    9b:94:76:9f:72:e2:b8:75:8b:eb:23:c9:22:b5:c0:
                    c7:e1:33:71:d4:cc:1f:08:c9:51:88:3e:24:ac:6e:
                    c8:77:4c:79:45:1e:b4:9a:35:af:46:0b:4c:5c:d3:
                    76:83:d9:af:11:4b:96:cc:7a:fa:51:2e:47:68:ca:
                    54:4a:fc:45:a2:6f:74:21:ad:11:d1:24:08:85:5c:
                    bd:ad:f7:70:31:fe:4c:e1:7d:38:48:02:3d:c3:03:
                    d3:f6:82:07:f0:92:51:41:09:8a:4e:2b:0c:23:85:
                    80:69:f3:68:54:64:22:0f:0f:fa:11:e4:56:65:41:
                    91:a0:e4:94:3b:c6:91:f1:ae:d2:58:0b:5b:e6:86:
                    6f:98:15:3d:43:a4:ab:c2:fa:f8:b9:77:6b:a8:4c:
                    09:ae:52:be:bd:f5:cd:3f:0e:10:98:7f:93:aa:73:
                    42:cb:3c:95:b2:06:02:86:94:e3:87:36:6c:79:98:
                    e8:71:34:ca:ea:c4:6b:c4:08:5b:c7:1d:4b:b2:b9:
                    63:9c:b2:d3:b9:f0:e9:c6:0b:d3:5b:19:bd:e8:d6:
                    f0:76:97:09:93:7a:78:c8:d6:ba:40:57:d9:b2:06:
                    33:94:0f:63:e8:02:b8:20:b4:1f:00:c1:4a:30:77:
                    2f:fa:b2:d3:4a:18:21:f6:f6:1d:89:e0:1b:72:1f:
                    3d:db:65:74:42:63:8c:56:e9:7c:f1:95:bc:71:b7:
                    c1:6e:41:6d:e6:bf:21:6d:16:e9:b5:18:81:db:d0:
                    69:e5:61:2c:20:d6:df:8d:7d:37:5e:05:d4:23:03:
                    23:7c:f0:75:6a:d7:b8:24:73:57:c1:87:21:5c:60:
                    d5:7f:b6:9c:05:1d:70:c4:16:70:52:72:ea:68:52:
                    dd:82:b6:99:4d:db:cc:78:ad:fb:de:39:f7:8f:64:
                    9e:37:67:6d:f9:75:c5:f3:1f:e7:02:c7:b1:a3:78:
                    12:44:20:42:1d:86:49:15:f4:0c:49:8d:6e:70:3f:
                    6e:54:0e:00:66:a9:fd:9f:93:d5:6c:ec:9d:b4:32:
                    fe:9d:c3
                Exponent: 65537 (0x10001)
        X509v3 extensions:
            X509v3 Basic Constraints: 
                CA:FALSE
            X509v3 Extended Key Usage: 
                TLS Web Client Authentication
            X509v3 Key Usage: 
                Digital Signature, Key Encipherment
    Signature Algorithm: sha512WithRSAEncryption
         41:0e:20:c7:b2:50:1e:a5:db:2b:cf:1b:1a:72:33:33:9f:a4:
         1c:d7:ac:43:02:47:10:a1:e6:20:70:8b:45:29:37:1c:ca:69:
         8a:67:65:3c:6f:29:d4:ed:75:14:7b:f6:6d:15:f7:00:d0:84:
         72:75:35:1e:44:7d:6d:df:d3:74:d8:88:a2:77:1a:1f:07:ed:
         2c:1f:5b:20:78:9f:73:39:17:ae:06:0a:63:d9:fa:48:61:c2:
         53:b3:16:b3:ec:c8:86:49:84:16:34:1d:27:9d:ce:2e:0f:3f:
         0c:6d:c7:3d:5c:de:52:cb:29:64:53:ce:7c:3d:4b:8b:64:84:
         20:b4:d6:fe:e0:df:a4:ba:55:ee:3d:a5:17:49:73:70:83:dc:
         63:af:cf:38:ca:ff:ac:4e:ba:04:47:c7:34:6a:1b:2c:a9:75:
         29:70:57:81:f8:86:b3:0e:fa:d4:a3:11:ca:7a:9d:8d:d0:48:
         e2:b8:a3:14:e1:d5:81:80:05:e4:19:5a:90:3c:b8:06:b3:fc:
         90:df:20:db:ea:dc:1b:db:12:a6:81:a2:ba:fd:6b:1c:60:51:
         dc:ca:3d:e0:f7:7b:13:c3:48:04:98:19:3f:df:e5:29:6d:6a:
         15:15:57:7b:ee:78:87:30:bb:45:e3:72:73:c6:83:6f:78:3c:
         2d:c5:df:bf:53:3a:b3:80:22:c1:c4:05:56:fc:84:57:fd:58:
         56:2e:60:e4:80:61:83:35:e8:f3:8a:ac:51:72:e3:ab:ce:51:
         ba:11:3b:33:a7:e3:9d:d8:ec:ff:b1:98:e3:fe:48:4b:53:0d:
         1c:52:ff:9e:6d:8d:05:8a:fe:08:eb:0d:46:63:e2:dc:25:da:
         a7:0c:0a:5d:1d:5a:34:36:68:e0:d0:e1:be:57:5f:31:28:c6:
         1a:7f:58:b3:a2:01:39:8a:31:59:6b:8e:0e:c3:af:f7:36:59:
         a4:4f:c7:d3:a1:80:b3:f8:cf:7f:78:18:ab:1b:57:57:c1:02:
         76:e7:5d:e6:a7:04:da:11:4d:33:96:6f:a1:a4:16:11:5f:6f:
         e9:93:3a:c3:e9:2f:68:4f:a4:9a:5c:63:b5:d8:8a:b4:3a:78:
         01:3a:a8:e5:ff:d1:db:27:31:3e:12:e2:81:5d:ea:7b:2d:7c:
         bf:1f:2e:d5:8a:c8:97:cf:a0:36:49:60:36:c6:d9:f8:7d:5e:
         12:93:9d:85:46:93:9e:b9:7f:e2:e3:4b:ff:ec:62:f2:c9:59:
         d4:22:b4:a7:29:2d:fc:41:f3:10:20:f1:af:e2:08:e3:38:af:
         89:63:67:bf:e4:da:96:26:24:16:db:6a:63:8f:8f:4e:e7:19:
         13:d6:54:56:56:a2:4c:f8
-----BEGIN CERTIFICATE-----
MIIFVDCCAzygAwIBAgIBBDANBgkqhkiG9w0BAQ0FADB5MQswCQYDVQQGEwJVUzER
MA8GA1UECAwITmV3IFlvcmsxFjAUBgNVBAcMDU5ldyBZb3JrIENpdHkxEDAOBgNV
BAoMB3F1YW50dW0xFDASBgNVBAsMC2RldmVsb3BtZW50MRcwFQYDVQQDDA5jYS5x
dWFudHVtLmRldjAeFw0xNjA4MTMyMDAwMzhaFw0yNjA4MTEyMDAwMzhaMDExEDAO
BgNVBAoMB3F1YW50dW0xHTAbBgNVBAMMFHF1YW50dW0yLnF1YW50dW0uZGV2MIIC
IjANBgkqhkiG9w0BAQEFAAOCAg8AMIICCgKCAgEArrnjtjc1GRIfb9dPKjnLCcRK
yleoayHe6PmXQcwzy2k5tjyl99ou3vzp0RCfy3VrqkIuSWfOGJLsDPFSXh7j8WX3
b/KxF7Cds36G3BsUekI0KtYCOumMbI12DOAjVgDvCqsagvahSFsf/8Bx9OtNgX0Q
VeuQg7CblHafcuK4dYvrI8kitcDH4TNx1MwfCMlRiD4krG7Id0x5RR60mjWvRgtM
XNN2g9mvEUuWzHr6US5HaMpUSvxFom90Ia0R0SQIhVy9rfdwMf5M4X04SAI9wwPT
9oIH8JJRQQmKTisMI4WAafNoVGQiDw/6EeRWZUGRoOSUO8aR8a7SWAtb5oZvmBU9
Q6Srwvr4uXdrqEwJrlK+vfXNPw4QmH+TqnNCyzyVsgYChpTjhzZseZjocTTK6sRr
xAhbxx1LsrljnLLTufDpxgvTWxm96NbwdpcJk3p4yNa6QFfZsgYzlA9j6AK4ILQf
AMFKMHcv+rLTShgh9vYdieAbch8922V0QmOMVul88ZW8cbfBbkFt5r8hbRbptRiB
29Bp5WEsINbfjX03XgXUIwMjfPB1ate4JHNXwYchXGDVf7acBR1wxBZwUnLqaFLd
graZTdvMeK373jn3j2SeN2dt+XXF8x/nAsexo3gSRCBCHYZJFfQMSY1ucD9uVA4A
Zqn9n5PVbOydtDL+ncMCAwEAAaMvMC0wCQYDVR0TBAIwADATBgNVHSUEDDAKBggr
BgEFBQcDAjALBgNVHQ8EBAMCBaAwDQYJKoZIhvcNAQENBQADggIBAEEOIMeyUB6l
2yvPGxpyMzOfpBzXrEMCRxCh5iBwi0UpNxzKaYpnZTxvKdTtdRR79m0V9wDQhHJ1
NR5EfW3f03TYiKJ3Gh8H7SwfWyB4n3M5F64GCmPZ+khhwlOzFrPsyIZJhBY0HSed
zi4PPwxtxz1c3lLLKWRTznw9S4tkhCC01v7g36S6Ve49pRdJc3CD3GOvzzjK/6xO
ugRHxzRqGyypdSlwV4H4hrMO+tSjEcp6nY3QSOK4oxTh1YGABeQZWpA8uAaz/JDf
INvq3BvbEqaBorr9axxgUdzKPeD3exPDSASYGT/f5SltahUVV3vueIcwu0XjcnPG
g294PC3F379TOrOAIsHEBVb8hFf9WFYuYOSAYYM16POKrFFy46vOUboROzOn453Y
7P+xmOP+SEtTDRxS/55tjQWK/gjrDUZj4twl2qcMCl0dWjQ2aODQ4b5XXzEoxhp/
WLOiATmKMVlrjg7Dr/c2WaRPx9OhgLP4z394GKsbV1fBAnbnXeanBNoRTTOWb6Gk
FhFfb+mTOsPpL2hPpJpcY7XYirQ6eAE6qOX/0dsnMT4S4oFd6nstfL8fLtWKyJfP
oDZJYDbG2fh9XhKTnYVGk565f+LjS//sYvLJWdQitKcpLfxB8xAg8a/iCOM4r4lj
Z7/k2pYmJBbbamOPj07nGRPWVFZWokz4
-----END CERTIFICATE-----
