Certificate:
    Data:
        Version: 3 (0x2)
        Serial Number: 2 (0x2)
    Signature Algorithm: sha512WithRSAEncryption
        Issuer: C=US, ST=New York, L=New York City, O=quantum, OU=development, CN=ca.quantum.dev
        Validity
            Not Before: Aug 13 20:00:31 2016 GMT
            Not After : Aug 11 20:00:31 2026 GMT
        Subject: O=quantum, CN=quantum0.quantum.dev
        Subject Public Key Info:
            Public Key Algorithm: rsaEncryption
                Public-Key: (4096 bit)
                Modulus:
                    00:b6:36:d8:cb:e1:cb:fd:db:7f:49:41:7c:95:ac:
                    18:eb:9b:ac:17:d3:d7:aa:77:0c:00:7e:0c:eb:a2:
                    c4:19:3a:f2:95:7e:59:66:fc:e5:e5:c9:78:b5:bc:
                    35:2f:28:4b:0a:c7:3b:5b:a4:20:f6:1d:4f:5a:aa:
                    65:16:0c:fa:10:20:10:e6:ac:1c:29:3b:ac:1a:bc:
                    ed:85:47:19:d4:03:64:e6:71:0d:15:64:35:ff:bd:
                    a4:c9:1f:44:2b:79:bf:1d:7c:18:65:13:74:41:5a:
                    38:27:b6:ef:a9:de:3b:4a:17:23:90:60:fb:8d:af:
                    c9:08:42:0b:a2:1d:5a:66:3e:e5:84:a0:d2:df:6f:
                    0c:23:ee:0c:d0:b9:3a:92:a8:8a:75:fd:cd:5f:49:
                    1c:6b:71:d8:62:40:79:2b:9b:4b:17:56:fb:8b:21:
                    71:21:6c:8d:7f:b8:c6:4e:7a:19:09:4d:3d:de:73:
                    e8:e4:8b:02:49:4d:b2:5c:9a:ed:75:29:3f:90:76:
                    b2:34:42:75:8e:3d:ae:47:cc:c8:c4:d6:1c:ed:0c:
                    77:d6:ad:fa:43:ee:2e:fb:c9:23:cf:64:3e:6c:8a:
                    69:8f:11:e6:f5:72:34:fa:47:6c:e6:24:11:8a:b2:
                    fb:21:88:89:c1:e7:81:ad:7d:be:0f:1a:22:a5:66:
                    0d:05:72:3a:4d:1a:5a:6b:c2:68:d5:6c:60:bb:6c:
                    0d:41:67:ab:d1:e6:ac:31:07:37:da:a6:07:52:7b:
                    01:cf:6c:7f:83:76:e3:d5:9b:b9:4a:d6:93:d2:e3:
                    57:6b:6a:56:fc:3e:e4:65:2c:08:4a:67:28:ec:a5:
                    45:22:d7:54:c4:58:17:5f:06:84:e2:34:23:df:3c:
                    f3:50:7f:8c:ba:1a:b4:3d:9c:b9:a8:22:78:5d:34:
                    67:04:9d:9e:07:e2:9b:20:63:26:78:12:50:e7:00:
                    12:ed:b9:22:cc:4a:a5:55:b6:99:4b:ec:2d:fd:45:
                    28:f0:07:22:ac:93:c0:b1:59:70:15:ef:78:fb:58:
                    a8:38:f5:42:86:55:50:d3:b7:b0:9c:ba:f1:b2:ef:
                    fb:da:c7:a2:59:28:a4:68:09:cc:c0:f3:7b:11:76:
                    5e:cd:5b:41:b7:e8:86:d1:6d:ab:f3:c8:e9:0f:0e:
                    2f:dd:4a:2f:4c:cb:0b:32:32:16:a2:1f:06:11:d3:
                    ef:e7:ee:02:47:bc:53:23:eb:52:1d:84:bc:ce:3e:
                    b4:38:2a:52:91:d1:ab:5c:d5:3b:79:e9:22:6a:2d:
                    bc:c7:88:8f:e2:8b:f8:ed:2e:1c:c8:ad:eb:6a:0d:
                    43:f4:55:68:0f:f9:0c:ae:68:b4:b3:a8:74:3d:61:
                    3e:77:d3
                Exponent: 65537 (0x10001)
        X509v3 extensions:
            X509v3 Basic Constraints: 
                CA:FALSE
            X509v3 Extended Key Usage: 
                TLS Web Client Authentication
            X509v3 Key Usage: 
                Digital Signature, Key Encipherment
    Signature Algorithm: sha512WithRSAEncryption
         ba:79:2d:e9:d3:0f:55:77:b6:c6:9a:88:95:d7:8f:fb:6b:04:
         cc:55:07:4d:fa:f6:41:0c:ac:0b:64:7b:fc:74:c1:5b:c3:35:
         46:6a:a3:d8:7f:ca:2a:8c:1c:33:3c:a7:3a:ec:2d:29:a8:52:
         70:fb:6f:29:ba:e6:89:29:44:bd:ce:57:0a:60:85:7d:c6:72:
         bb:f7:68:d5:85:25:e7:6e:43:02:51:92:c5:0d:52:a3:a5:9f:
         4f:68:6d:2d:e9:97:44:23:44:b8:63:e0:6b:12:b7:f8:65:b7:
         cf:66:5d:91:92:f9:d4:59:3c:c9:a1:2d:b1:d1:26:a3:8c:be:
         cc:2e:d4:6c:7c:b5:06:b0:21:86:61:df:a0:37:91:60:14:9a:
         7f:65:97:23:5b:89:ea:3a:cd:29:79:7e:2c:6b:67:b6:78:ac:
         d9:06:7e:e4:80:77:fe:ee:93:62:8d:72:f6:b5:b0:58:8b:dc:
         e0:56:96:04:5a:24:c5:4e:ec:be:8b:0f:1a:48:d4:fb:01:0f:
         ed:9b:88:7a:d8:5c:f2:41:4d:b9:f4:28:f9:35:07:e6:2b:98:
         10:28:58:69:6d:14:4b:0c:09:9c:59:70:44:b1:96:a1:b0:56:
         69:77:dd:ee:ff:7c:c7:81:60:bc:74:52:db:b3:ce:d7:5d:55:
         bc:7d:68:be:59:b5:e2:50:23:b7:7d:d7:cf:80:1d:a2:48:98:
         1a:ac:34:67:ea:18:e3:52:77:f2:57:eb:b4:23:91:9b:b4:e5:
         14:cb:fa:2b:88:03:8e:58:41:f1:62:56:66:7f:ae:bf:4e:35:
         1c:b0:29:3a:4b:27:65:c1:a3:ec:ae:6b:81:d9:1c:8a:8e:6a:
         58:1d:4b:ba:83:c6:15:a6:0c:82:50:5d:75:9e:50:5b:6e:89:
         0e:27:96:d1:82:db:6a:eb:52:41:49:f4:94:42:76:1f:f2:1b:
         46:c6:ed:83:b1:bd:2f:e5:7c:06:ca:40:56:bb:67:38:bc:b1:
         d1:89:1a:a2:11:ab:01:2d:b5:52:f7:cc:1c:7d:09:59:a9:87:
         1c:d2:6b:4c:83:22:81:aa:c7:9e:43:d4:41:a1:92:de:af:25:
         3e:89:38:65:82:02:d9:c6:b7:e1:76:84:16:27:29:82:2a:56:
         94:6b:b8:0e:53:9c:d9:ac:17:c3:97:d7:90:20:d1:6f:8a:39:
         b5:12:d8:66:ae:f3:58:97:02:9c:f8:ad:db:1c:ac:98:5f:4e:
         6f:f4:46:ef:c6:b6:2d:5a:3f:a5:35:1b:88:58:25:6c:69:fa:
         a3:35:86:cd:e4:6c:11:a5:61:a6:d1:fd:65:1c:e7:33:64:d9:
         b4:1b:02:d2:fe:2b:36:e0
-----BEGIN CERTIFICATE-----
MIIFVDCCAzygAwIBAgIBAjANBgkqhkiG9w0BAQ0FADB5MQswCQYDVQQGEwJVUzER
MA8GA1UECAwITmV3IFlvcmsxFjAUBgNVBAcMDU5ldyBZb3JrIENpdHkxEDAOBgNV
BAoMB3F1YW50dW0xFDASBgNVBAsMC2RldmVsb3BtZW50MRcwFQYDVQQDDA5jYS5x
dWFudHVtLmRldjAeFw0xNjA4MTMyMDAwMzFaFw0yNjA4MTEyMDAwMzFaMDExEDAO
BgNVBAoMB3F1YW50dW0xHTAbBgNVBAMMFHF1YW50dW0wLnF1YW50dW0uZGV2MIIC
IjANBgkqhkiG9w0BAQEFAAOCAg8AMIICCgKCAgEAtjbYy+HL/dt/SUF8lawY65us
F9PXqncMAH4M66LEGTrylX5ZZvzl5cl4tbw1LyhLCsc7W6Qg9h1PWqplFgz6ECAQ
5qwcKTusGrzthUcZ1ANk5nENFWQ1/72kyR9EK3m/HXwYZRN0QVo4J7bvqd47Shcj
kGD7ja/JCEILoh1aZj7lhKDS328MI+4M0Lk6kqiKdf3NX0kca3HYYkB5K5tLF1b7
iyFxIWyNf7jGTnoZCU093nPo5IsCSU2yXJrtdSk/kHayNEJ1jj2uR8zIxNYc7Qx3
1q36Q+4u+8kjz2Q+bIppjxHm9XI0+kds5iQRirL7IYiJweeBrX2+DxoipWYNBXI6
TRpaa8Jo1Wxgu2wNQWer0easMQc32qYHUnsBz2x/g3bj1Zu5StaT0uNXa2pW/D7k
ZSwISmco7KVFItdUxFgXXwaE4jQj3zzzUH+Muhq0PZy5qCJ4XTRnBJ2eB+KbIGMm
eBJQ5wAS7bkizEqlVbaZS+wt/UUo8AcirJPAsVlwFe94+1ioOPVChlVQ07ewnLrx
su/72seiWSikaAnMwPN7EXZezVtBt+iG0W2r88jpDw4v3UovTMsLMjIWoh8GEdPv
5+4CR7xTI+tSHYS8zj60OCpSkdGrXNU7eekiai28x4iP4ov47S4cyK3rag1D9FVo
D/kMrmi0s6h0PWE+d9MCAwEAAaMvMC0wCQYDVR0TBAIwADATBgNVHSUEDDAKBggr
BgEFBQcDAjALBgNVHQ8EBAMCBaAwDQYJKoZIhvcNAQENBQADggIBALp5LenTD1V3
tsaaiJXXj/trBMxVB0369kEMrAtke/x0wVvDNUZqo9h/yiqMHDM8pzrsLSmoUnD7
bym65okpRL3OVwpghX3Gcrv3aNWFJeduQwJRksUNUqOln09obS3pl0QjRLhj4GsS
t/hlt89mXZGS+dRZPMmhLbHRJqOMvswu1Gx8tQawIYZh36A3kWAUmn9llyNbieo6
zSl5fixrZ7Z4rNkGfuSAd/7uk2KNcva1sFiL3OBWlgRaJMVO7L6LDxpI1PsBD+2b
iHrYXPJBTbn0KPk1B+YrmBAoWGltFEsMCZxZcESxlqGwVml33e7/fMeBYLx0Utuz
ztddVbx9aL5ZteJQI7d918+AHaJImBqsNGfqGONSd/JX67QjkZu05RTL+iuIA45Y
QfFiVmZ/rr9ONRywKTpLJ2XBo+yua4HZHIqOalgdS7qDxhWmDIJQXXWeUFtuiQ4n
ltGC22rrUkFJ9JRCdh/yG0bG7YOxvS/lfAbKQFa7Zzi8sdGJGqIRqwEttVL3zBx9
CVmphxzSa0yDIoGqx55D1EGhkt6vJT6JOGWCAtnGt+F2hBYnKYIqVpRruA5TnNms
F8OX15Ag0W+KObUS2Gau81iXApz4rdscrJhfTm/0Ru/Gti1aP6U1G4hYJWxp+qM1
hs3kbBGlYabR/WUc5zNk2bQbAtL+Kzbg
-----END CERTIFICATE-----
